C:\Users\Benjamin\Desktop\UWF\UWF Spring 2018\MicroP Lab\Lab9.lst - generated by MGTEK Assembler ASM11 V1.26 Build 144 for WIN32 (x86) - Wed Apr 18 13:23:56 2018

    1:                                      ;Benjamin Linam lab 9   
    2:                                      ;must measure from 100hz to 10khz, 0064->2710
    3:          =00001000                   REGBAS  EQU     $1000   ;base address of I/O register block
    4:          =00000021                   TCTL2   EQU     $21     ;offset of TCTL3 from REGBAS
    5:          =00000022                   TMSK1   EQU     $22     ;offset of TMSK1 from REGBAS
    6:          =00000023                   TFLG1   EQU     $23     ;offset of TFLG1 from REGBAS
    7:          =0000000E                   TCNT    EQU     $0E     ;offset of TCNT from REGBAS
    8:          =00000010                   TIC1    EQU     $10     ;offset of TIC1 from REGBAS
    9:          =00000010                   IC1rise EQU     $10     ;value to select the rising edge of IC1 to capture
   10:          =00000004                   IC1I    EQU     $04     ;mask to select the IC1I bit of the TMSK1 register
   11:          =000000FB                   IC1FM   EQU     $FB     ;mask to clear IC1F flag using the BCLR instruction
   12:                                      
   13:          =0000FFB8                   .OUTA   EQU     $FFB8
   14:          =0000FFC4                   .OUTCRL EQU     $FFC4
   15:          =0000FFCA                   .OUTSTO EQU     $FFCA
   16:          =0000FFC7                   .OUTSTR EQU     $FFC7
   17:                                              
   18:          =00000000                                   ORG     $00
C:\Users\Benjamin\Desktop\UWF\UWF Spring 2018\MicroP Lab\Lab9.asm(19): Warning A4304: col(13) obsolete directive
   19:     0000 +0001                       edge_cnt        RMB     1       ;edge count
C:\Users\Benjamin\Desktop\UWF\UWF Spring 2018\MicroP Lab\Lab9.asm(20): Warning A4304: col(11) obsolete directive
   20:     0001 +0002                       EDGE1           RMB     2       ;captured first edge value
C:\Users\Benjamin\Desktop\UWF\UWF Spring 2018\MicroP Lab\Lab9.asm(21): Warning A4304: col(12) obsolete directive
   21:     0003 +0002                       period          RMB     2       ;period in number of E clock cycles
C:\Users\Benjamin\Desktop\UWF\UWF Spring 2018\MicroP Lab\Lab9.asm(22): Warning A4304: col(11) obsolete directive
   22:     0005 +0002                       TEMP1           RMB     2
C:\Users\Benjamin\Desktop\UWF\UWF Spring 2018\MicroP Lab\Lab9.asm(23): Warning A4304: col(11) obsolete directive
   23:     0007 +0002                       FREQH           RMB     2
C:\Users\Benjamin\Desktop\UWF\UWF Spring 2018\MicroP Lab\Lab9.asm(24): Warning A4304: col(11) obsolete directive
   24:     0009 +0008                       DBUFR           RMB     8
   25:                                      
   26:          =000000E8                           ORG     $E8
   27:     00E8 7E B69F                [03]         JMP     IC1_ISR
   28:                                              
   29:          =0000B600                           ORG     $B600
   30:     B600 8E 01FF                [03]         LDS     #$01FF          ;init stack
   31:     B603 CE 1000                [03]         LDX     #REGBAS
   32:     B606 4F                     [02]         CLRA    
   33:     B607 97 01                  [03]         STAA    EDGE1
   34:     B609 97 02                  [03]         STAA    EDGE1+1
   35:     B60B BD B68D                [06]         JSR     IC1_init
   36:                                              
   37:     B60E 86 02                  [02] LOOP    LDAA    #2              ;initialize edge_cnt to 2
   38:     B610 97 00                  [03]         STAA    edge_cnt        ;
   39:     B612 0E                     [02]         CLI                     ;enable interrupts to 68HC11
   40:                                      
   41:     B613 C6 0A                  [02]         LDAB    #10             ;wait for 1 second
   42:     B615 18CE 4E20              [04] outer   LDY     #20000          
   43:     B619 01                     [02] inner   NOP
   44:     B61A 01                     [02]         NOP
   45:     B61B 1809                   [04]         DEY
   46:     B61D 26 FA                  [03]         BNE     inner
   47:     B61F 5A                     [02]         DECB
   48:     B620 26 F3                  [03]         BNE     outer
   49:                                              
   50:     B622 7D 0000                [06] WAIT    TST     edge_cnt        ;checks if two edges have been captured
   51:     B625 26 FB                  [03]         BNE     WAIT
   52:     B627 0F                     [02]         SEI                     ;disables interrupts
   53:     B628 7F 0003                [06]         CLR     period
   54:     B62B CE 1000                [03]         LDX     #REGBAS 
   55:     B62E EC 10                  [05]         LDD     TIC1,X          ;get the second edge time
   56:     B630 93 01                  [05]         SUBD    EDGE1           ;take the difference of edge1 and edge2
   57:     B632 DD 03                  [04]         STD     period
   58:                                              
   59:     B634 DE 03                  [04]         LDX     period
   60:                                      
   61:     B636 CC 0020                [03]         LDD     #32             ;X-period D-32
   62:     B639 03                     [29]         FDIV                    ;D/X -> X R->D
   63:     B63A DF 05                  [04]         STX     TEMP1
   64:                                      
   65:     B63C DC 05                  [04]         LDD     TEMP1
   66:     B63E 04                     [03]         LSRD
   67:     B63F 04                     [03]         LSRD
   68:     B640 04                     [03]         LSRD
   69:     B641 7F 0007                [06]         CLR     FREQH
   70:     B644 97 08                  [03]         STAA    FREQH+1
   71:     B646 04                     [03]         LSRD
   72:     B647 04                     [03]         LSRD
   73:     B648 DD 05                  [04]         STD     TEMP1
   74:     B64A 8F                     [03]         XGDX
   75:     B64B 93 05                  [05]         SUBD    TEMP1   
   76:     B64D 8F                     [03]         XGDX
   77:     B64E 04                     [03]         LSRD
   78:     B64F DD 05                  [04]         STD     TEMP1
   79:     B651 9B 08                  [03]         ADDA    FREQH+1
   80:     B653 97 08                  [03]         STAA    FREQH+1
   81:     B655 8F                     [03]         XGDX
   82:     B656 93 05                  [05]         SUBD    TEMP1
   83:     B658 D3 07                  [05]         ADDD    FREQH
   84:     B65A DD 07                  [04]         STD     FREQH
   85:                                      
   86:     B65C 1A83 0064              [05]         CPD     #$0064          ;64(16) = 100(10) lower limit of freq
   87:     B660 24 08                  [03]         BHS     OKP1            ;skip if okay
   88:     B662 CE B737                [03]         LDX     #MSGER1
   89:     B665 BD FFC7                [06]         JSR     .OUTSTR
   90:     B668 20 20                  [03]         BRA     JTOP            ;else display too small
   91:                                      
   92:     B66A 1A83 2710              [05] OKP1    CPD     #$2710          ;2710(16) = 10K(10) upper limit of freq
   93:     B66E 23 08                  [03]         BLS     OKP2            ;skip if okay
   94:     B670 CE B74C                [03]         LDX     #MSGER2
   95:     B673 BD FFC7                [06]         JSR     .OUTSTR
   96:     B676 20 12                  [03]         BRA     JTOP            ;else display too large
   97:                                      
   98:     B678 BD FFC4                [06] OKP2    JSR     .OUTCRL
   99:     B67B CE 0007                [03]         LDX     #FREQH
  100:     B67E BD B703                [06]         JSR     HTOD
  101:     B681 BD B6AF                [06]         JSR     P5DEC
  102:     B684 CE B761                [03]         LDX     #MSGHZ
  103:     B687 BD FFCA                [06]         JSR     .OUTSTO
  104:     B68A 7E B60E                [03] JTOP    JMP     LOOP
  105:                                      
  106:     B68D CE 1000                [03] IC1_init        LDX     #REGBAS
  107:     B690 86 10                  [02]                 LDAA    #IC1rise        ;prepare to capture the rising edge of IC1
  108:     B692 A7 21                  [04]                 STAA    TCTL2,X         ;       "
  109:     B694 1D 23 FB               [07]                 BCLR    TFLG1,X IC1FM   ;clear the IC1F flag of the TFLG1 register
  110:     B697 86 02                  [02]                 LDAA    #2
  111:     B699 97 00                  [03]                 STAA    edge_cnt
  112:     B69B 1C 22 04               [07]                 BSET    TMSK1,X IC1I    ;set the IC1 interrupt bit
  113:     B69E 39                     [05]                 RTS
  114:                                              
  115:                                      
  116:     B69F CE 1000                [03] IC1_ISR LDX     #REGBAS
  117:     B6A2 1D 23 FB               [07]         BCLR    TFLG1,X IC1FM   ;clear the IC1F flag
  118:     B6A5 7A 0000                [06]         DEC     edge_cnt
  119:     B6A8 27 04                  [03]         BEQ     SKIP            ;is this the second edge?
  120:     B6AA EC 10                  [05]         LDD     TIC1,X
  121:     B6AC DD 01                  [04]         STD     EDGE1           ;save the arrival time of the first edge
  122:     B6AE 3B                     [0C] SKIP    RTI
  123:                                      
  124:     B6AF 3C                     [04] P5DEC   PSHX
  125:     B6B0 37                     [03]         PSHB
  126:     B6B1 36                     [03]         PSHA
  127:     B6B2 CE 0009                [03]         LDX     #DBUFR
  128:     B6B5 86 30                  [02]         LDAA    #$30
  129:     B6B7 A1 00                  [04]         CMPA    0,X
  130:     B6B9 26 19                  [03]         BNE     P10K
  131:     B6BB 8D 3D                  [06]         BSR     SKP1
  132:     B6BD A1 00                  [04]         CMPA    0,X
  133:     B6BF 26 19                  [03]         BNE     P1K
  134:     B6C1 8D 37                  [06]         BSR     SKP1
  135:     B6C3 8D 35                  [06]         BSR     SKP1
  136:     B6C5 09                     [03]         DEX
  137:     B6C6 A1 00                  [04]         CMPA    0,X
  138:     B6C8 26 1B                  [03]         BNE     P100
  139:     B6CA 8D 2E                  [06]         BSR     SKP1
  140:     B6CC A1 00                  [04]         CMPA    0,X
  141:     B6CE 26 1B                  [03]         BNE     P10
  142:     B6D0 8D 28                  [06]         BSR     SKP1
  143:     B6D2 20 1D                  [03]         BRA     P1
  144:     B6D4 A6 00                  [04] P10K    LDAA    0,X
  145:     B6D6 BD FFB8                [06]         JSR     .OUTA
  146:     B6D9 08                     [03]         INX
  147:     B6DA A6 00                  [04] P1K     LDAA    0,X
  148:     B6DC BD FFB8                [06]         JSR     .OUTA   
  149:     B6DF 86 2C                  [02]         LDAA    #','
  150:     B6E1 BD FFB8                [06]         JSR     .OUTA
  151:     B6E4 08                     [03]         INX
  152:     B6E5 A6 00                  [04] P100    LDAA    0,X
  153:     B6E7 BD FFB8                [06]         JSR     .OUTA
  154:     B6EA 08                     [03]         INX
  155:     B6EB A6 00                  [04] P10     LDAA    0,X
  156:     B6ED BD FFB8                [06]         JSR     .OUTA
  157:     B6F0 08                     [03]         INX
  158:     B6F1 A6 00                  [04] P1      LDAA    0,X
  159:     B6F3 BD FFB8                [06]         JSR     .OUTA
  160:     B6F6 32                     [04]         PULA
  161:     B6F7 33                     [04]         PULB
  162:     B6F8 38                     [05]         PULX
  163:     B6F9 39                     [05]         RTS
  164:                                      
  165:     B6FA 36                     [03] SKP1    PSHA
  166:     B6FB 08                     [03]         INX
  167:     B6FC 86 20                  [02]         LDAA    #$20
  168:     B6FE BD FFB8                [06]         JSR     .OUTA
  169:     B701 32                     [04]         PULA
  170:     B702 39                     [05]         RTS
  171:                                      
  172:     B703 3C                     [04] HTOD    PSHX
  173:     B704 37                     [03]         PSHB
  174:     B705 36                     [03]         PSHA
  175:     B706 EC 00                  [05]         LDD     0,X
  176:     B708 CE 2710                [03]         LDX     #10000
  177:     B70B 02                     [29]         IDIV
  178:     B70C 8F                     [03]         XGDX
  179:     B70D CB 30                  [02]         ADDB    #$30
  180:     B70F D7 09                  [03]         STAB    DBUFR
  181:     B711 8F                     [03]         XGDX
  182:     B712 CE 03E8                [03]         LDX     #1000
  183:     B715 02                     [29]         IDIV    
  184:     B716 8F                     [03]         XGDX
  185:     B717 CB 30                  [02]         ADDB    #$30
  186:     B719 D7 0A                  [03]         STAB    DBUFR+1
  187:     B71B 8F                     [03]         XGDX
  188:     B71C CE 0064                [03]         LDX     #100
  189:     B71F 02                     [29]         IDIV
  190:     B720 8F                     [03]         XGDX
  191:     B721 CB 30                  [02]         ADDB    #$30
  192:     B723 D7 0B                  [03]         STAB    DBUFR+2
  193:     B725 8F                     [03]         XGDX
  194:     B726 CE 000A                [03]         LDX     #10
  195:     B729 02                     [29]         IDIV
  196:     B72A CB 30                  [02]         ADDB    #$30
  197:     B72C D7 0D                  [03]         STAB    DBUFR+4
  198:     B72E 8F                     [03]         XGDX
  199:     B72F CB 30                  [02]         ADDB    #$30
  200:     B731 D7 0C                  [03]         STAB    DBUFR+3
  201:     B733 32                     [04]         PULA    
  202:     B734 33                     [04]         PULB
  203:     B735 38                     [05]         PULX
  204:     B736 39                     [05]         RTS
  205:                                              
C:\Users\Benjamin\Desktop\UWF\UWF Spring 2018\MicroP Lab\Lab9.asm(206): Warning A4304: col(11) obsolete directive
  206:     B737 46 72 65 71 2E 20           MSGER1  FCC     "Freq. is below 100Hz"
           B73D 69 73 20 62 65 6C 
           B743 6F 77 20 31 30 30 
           B749 48 7A 
C:\Users\Benjamin\Desktop\UWF\UWF Spring 2018\MicroP Lab\Lab9.asm(207): Warning A4304: col(5) obsolete directive
  207:     B74B 04                                  FCB     $04
C:\Users\Benjamin\Desktop\UWF\UWF Spring 2018\MicroP Lab\Lab9.asm(208): Warning A4304: col(11) obsolete directive
  208:     B74C 46 72 65 71 2E 20           MSGER2  FCC     "Freq. is above 10kHz"
           B752 69 73 20 61 62 6F 
           B758 76 65 20 31 30 6B 
           B75E 48 7A 
C:\Users\Benjamin\Desktop\UWF\UWF Spring 2018\MicroP Lab\Lab9.asm(209): Warning A4304: col(5) obsolete directive
  209:     B760 04                                  FCB     $04
C:\Users\Benjamin\Desktop\UWF\UWF Spring 2018\MicroP Lab\Lab9.asm(210): Warning A4304: col(10) obsolete directive
  210:     B761 20 48 7A                    MSGHZ   FCC     " Hz"
C:\Users\Benjamin\Desktop\UWF\UWF Spring 2018\MicroP Lab\Lab9.asm(211): Warning A4304: col(5) obsolete directive
  211:     B764 04                                  FCB     $04
  212:                                      
  213:                                              
